target datalayout = "e-m:e-p270:32:32-p271:32:32-p272:64:64-i64:64-i128:128-f80:128-n8:16:32:64-S128"
target triple = "x86_64-pc-linux-gnu"

%"class.gmx::ImdSession::Impl" = type { i8, ptr, i32, i32, ptr, ptr, i32, ptr, ptr, ptr, ptr, ptr, i32, i32, i32, i32, ptr, ptr, i32, i8, i8, i8, i8, i8, ptr, i32, ptr, ptr, i32, ptr, ptr, ptr, ptr, ptr, %struct.t_block, i32, ptr, ptr, ptr, ptr, ptr, ptr }
%struct.t_block = type { i32, ptr, i32 }

; Function Attrs: mustprogress uwtable
define void @_ZN3gmx10ImdSession4ImplC2ERKNS_8MDLoggerE(ptr noundef nonnull align 8 dereferenceable(296) %0, ptr noundef nonnull align 8 dereferenceable(40) %1) unnamed_addr #0 align 2 {
  %3 = alloca ptr, align 8
  %4 = alloca ptr, align 8
  store ptr %0, ptr %3, align 8, !tbaa !266
  store ptr %1, ptr %4, align 8, !tbaa !378
  %5 = load ptr, ptr %3, align 8
  %6 = getelementptr inbounds nuw %"class.gmx::ImdSession::Impl", ptr %5, i32 0, i32 0
  store i8 0, ptr %6, align 8, !tbaa !248
  %7 = getelementptr inbounds nuw %"class.gmx::ImdSession::Impl", ptr %5, i32 0, i32 1
  store ptr null, ptr %7, align 8, !tbaa !303
  %8 = getelementptr inbounds nuw %"class.gmx::ImdSession::Impl", ptr %5, i32 0, i32 2
  store i32 0, ptr %8, align 8, !tbaa !257
  %9 = getelementptr inbounds nuw %"class.gmx::ImdSession::Impl", ptr %5, i32 0, i32 3
  store i32 0, ptr %9, align 4, !tbaa !379
  %10 = getelementptr inbounds nuw %"class.gmx::ImdSession::Impl", ptr %5, i32 0, i32 4
  store ptr null, ptr %10, align 8, !tbaa !258
  %11 = getelementptr inbounds nuw %"class.gmx::ImdSession::Impl", ptr %5, i32 0, i32 5
  store ptr null, ptr %11, align 8, !tbaa !380
  %12 = getelementptr inbounds nuw %"class.gmx::ImdSession::Impl", ptr %5, i32 0, i32 6
  store i32 0, ptr %12, align 8, !tbaa !381
  %13 = getelementptr inbounds nuw %"class.gmx::ImdSession::Impl", ptr %5, i32 0, i32 7
  store ptr null, ptr %13, align 8, !tbaa !382
  %14 = getelementptr inbounds nuw %"class.gmx::ImdSession::Impl", ptr %5, i32 0, i32 8
  store ptr null, ptr %14, align 8, !tbaa !383
  %15 = getelementptr inbounds nuw %"class.gmx::ImdSession::Impl", ptr %5, i32 0, i32 9
  store ptr null, ptr %15, align 8, !tbaa !384
  %16 = getelementptr inbounds nuw %"class.gmx::ImdSession::Impl", ptr %5, i32 0, i32 10
  store ptr null, ptr %16, align 8, !tbaa !385
  %17 = getelementptr inbounds nuw %"class.gmx::ImdSession::Impl", ptr %5, i32 0, i32 11
  store ptr null, ptr %17, align 8, !tbaa !259
  %18 = getelementptr inbounds nuw %"class.gmx::ImdSession::Impl", ptr %5, i32 0, i32 12
  store i32 1, ptr %18, align 8, !tbaa !361
  %19 = getelementptr inbounds nuw %"class.gmx::ImdSession::Impl", ptr %5, i32 0, i32 13
  store i32 1, ptr %19, align 4, !tbaa !306
  %20 = getelementptr inbounds nuw %"class.gmx::ImdSession::Impl", ptr %5, i32 0, i32 14
  store i32 -1, ptr %20, align 8, !tbaa !305
  %21 = getelementptr inbounds nuw %"class.gmx::ImdSession::Impl", ptr %5, i32 0, i32 15
  store i32 0, ptr %21, align 4, !tbaa !286
  %22 = getelementptr inbounds nuw %"class.gmx::ImdSession::Impl", ptr %5, i32 0, i32 16
  store ptr null, ptr %22, align 8, !tbaa !285
  %23 = getelementptr inbounds nuw %"class.gmx::ImdSession::Impl", ptr %5, i32 0, i32 17
  store ptr null, ptr %23, align 8, !tbaa !304
  %24 = getelementptr inbounds nuw %"class.gmx::ImdSession::Impl", ptr %5, i32 0, i32 18
  store i32 0, ptr %24, align 8, !tbaa !325
  %25 = getelementptr inbounds nuw %"class.gmx::ImdSession::Impl", ptr %5, i32 0, i32 19
  store i8 0, ptr %25, align 4, !tbaa !369
  %26 = getelementptr inbounds nuw %"class.gmx::ImdSession::Impl", ptr %5, i32 0, i32 20
  store i8 0, ptr %26, align 1, !tbaa !368
  %27 = getelementptr inbounds nuw %"class.gmx::ImdSession::Impl", ptr %5, i32 0, i32 21
  store i8 0, ptr %27, align 2, !tbaa !307
  %28 = getelementptr inbounds nuw %"class.gmx::ImdSession::Impl", ptr %5, i32 0, i32 22
  store i8 0, ptr %28, align 1, !tbaa !364
  %29 = getelementptr inbounds nuw %"class.gmx::ImdSession::Impl", ptr %5, i32 0, i32 23
  store i8 0, ptr %29, align 8, !tbaa !362
  %30 = getelementptr inbounds nuw %"class.gmx::ImdSession::Impl", ptr %5, i32 0, i32 24
  store ptr null, ptr %30, align 8, !tbaa !386
  %31 = getelementptr inbounds nuw %"class.gmx::ImdSession::Impl", ptr %5, i32 0, i32 25
  store i32 0, ptr %31, align 8, !tbaa !320
  %32 = getelementptr inbounds nuw %"class.gmx::ImdSession::Impl", ptr %5, i32 0, i32 26
  store ptr null, ptr %32, align 8, !tbaa !326
  %33 = getelementptr inbounds nuw %"class.gmx::ImdSession::Impl", ptr %5, i32 0, i32 27
  store ptr null, ptr %33, align 8, !tbaa !327
  %34 = getelementptr inbounds nuw %"class.gmx::ImdSession::Impl", ptr %5, i32 0, i32 28
  store i32 0, ptr %34, align 8, !tbaa !328
  %35 = getelementptr inbounds nuw %"class.gmx::ImdSession::Impl", ptr %5, i32 0, i32 29
  store ptr null, ptr %35, align 8, !tbaa !330
  %36 = getelementptr inbounds nuw %"class.gmx::ImdSession::Impl", ptr %5, i32 0, i32 30
  store ptr null, ptr %36, align 8, !tbaa !331
  %37 = getelementptr inbounds nuw %"class.gmx::ImdSession::Impl", ptr %5, i32 0, i32 31
  store ptr null, ptr %37, align 8, !tbaa !387
  %38 = getelementptr inbounds nuw %"class.gmx::ImdSession::Impl", ptr %5, i32 0, i32 32
  store ptr null, ptr %38, align 8, !tbaa !388
  %39 = getelementptr inbounds nuw %"class.gmx::ImdSession::Impl", ptr %5, i32 0, i32 33
  store ptr null, ptr %39, align 8, !tbaa !389
  %40 = getelementptr inbounds nuw %"class.gmx::ImdSession::Impl", ptr %5, i32 0, i32 35
  store i32 0, ptr %40, align 8, !tbaa !333
  %41 = getelementptr inbounds nuw %"class.gmx::ImdSession::Impl", ptr %5, i32 0, i32 36
  store ptr null, ptr %41, align 8, !tbaa !334
  %42 = getelementptr inbounds nuw %"class.gmx::ImdSession::Impl", ptr %5, i32 0, i32 37
  store ptr null, ptr %42, align 8, !tbaa !336
  %43 = getelementptr inbounds nuw %"class.gmx::ImdSession::Impl", ptr %5, i32 0, i32 38
  %44 = load ptr, ptr %4, align 8, !tbaa !378
  store ptr %44, ptr %43, align 8, !tbaa !378
  %45 = getelementptr inbounds nuw %"class.gmx::ImdSession::Impl", ptr %5, i32 0, i32 39
  store ptr null, ptr %45, align 8, !tbaa !390
  %46 = getelementptr inbounds nuw %"class.gmx::ImdSession::Impl", ptr %5, i32 0, i32 40
  store ptr null, ptr %46, align 8, !tbaa !391
  %47 = getelementptr inbounds nuw %"class.gmx::ImdSession::Impl", ptr %5, i32 0, i32 41
  store ptr null, ptr %47, align 8, !tbaa !392
  %48 = getelementptr inbounds nuw %"class.gmx::ImdSession::Impl", ptr %5, i32 0, i32 34
  call void @_Z10init_blockP7t_block(ptr noundef %48)
  ret void
}