; Function Attrs: mustprogress uwtable
define void @_ZN3gmx10ImdSession4ImplC2ERKNS_8MDLoggerE(ptr noundef nonnull align 8 dereferenceable(296) initializes((0, 1), (8, 44), (48, 129), (136, 148), (152, 172), (176, 216), (240, 244), (248, 296)) %0, ptr noundef nonnull align 8 dereferenceable(40) %1) unnamed_addr #0 align 2 {
  store i8 0, ptr %0, align 8, !tbaa !129
  %3 = getelementptr inbounds nuw i8, ptr %0, i64 8
  %4 = getelementptr inbounds nuw i8, ptr %0, i64 48
  %5 = getelementptr inbounds nuw i8, ptr %0, i64 88
  tail call void @llvm.memset.p0.i64(ptr noundef nonnull align 8 dereferenceable(36) %3, i8 0, i64 36, i1 false)
  tail call void @llvm.memset.p0.i64(ptr noundef nonnull align 8 dereferenceable(40) %4, i8 0, i64 40, i1 false)
  store i32 1, ptr %5, align 8, !tbaa !204
  %6 = getelementptr inbounds nuw i8, ptr %0, i64 92
  store i32 1, ptr %6, align 4, !tbaa !156
  %7 = getelementptr inbounds nuw i8, ptr %0, i64 96
  store i32 -1, ptr %7, align 8, !tbaa !155
  %8 = getelementptr inbounds nuw i8, ptr %0, i64 100
  %9 = getelementptr inbounds nuw i8, ptr %0, i64 136
  store ptr null, ptr %9, align 8, !tbaa !212
  %10 = getelementptr inbounds nuw i8, ptr %0, i64 144
  store i32 0, ptr %10, align 8, !tbaa !166
  %11 = getelementptr inbounds nuw i8, ptr %0, i64 152
  %12 = getelementptr inbounds nuw i8, ptr %0, i64 176
  %13 = getelementptr inbounds nuw i8, ptr %0, i64 240
  store i32 0, ptr %13, align 8, !tbaa !177
  %14 = getelementptr inbounds nuw i8, ptr %0, i64 248
  %15 = getelementptr inbounds nuw i8, ptr %0, i64 264
  tail call void @llvm.memset.p0.i64(ptr noundef nonnull align 4 dereferenceable(29) %8, i8 0, i64 29, i1 false)
  tail call void @llvm.memset.p0.i64(ptr noundef nonnull align 8 dereferenceable(20) %11, i8 0, i64 20, i1 false)
  tail call void @llvm.memset.p0.i64(ptr noundef nonnull align 8 dereferenceable(40) %12, i8 0, i64 40, i1 false)
  tail call void @llvm.memset.p0.i64(ptr noundef nonnull align 8 dereferenceable(16) %14, i8 0, i64 16, i1 false)
  store ptr %1, ptr %15, align 8, !tbaa !213
  %16 = getelementptr inbounds nuw i8, ptr %0, i64 272
  %17 = getelementptr inbounds nuw i8, ptr %0, i64 216
  tail call void @llvm.memset.p0.i64(ptr noundef nonnull align 8 dereferenceable(24) %16, i8 0, i64 24, i1 false)
  tail call void @_Z10init_blockP7t_block(ptr noundef nonnull %17)
  ret void
}